; Function Attrs: nounwind uwtable
define i32 @Java_sun_nio_ch_Net_available(ptr noundef %0, ptr nocapture noundef readnone %1, ptr noundef %2) local_unnamed_addr #0 {
  %4 = alloca i32, align 4
  store i32 0, ptr %4, align 4
  br label %5

5:                                                ; preds = %8, %3
  %6 = call i32 @fdval(ptr noundef %0, ptr noundef %2) #7
  %7 = call i32 (i32, i64, ...) @ioctl(i32 noundef %6, i64 noundef 21531, ptr noundef nonnull %4) #7
  switch i32 %7, label %..critedge_crit_edge [
    i32 -1, label %8
    i32 0, label %18
  ]

..critedge_crit_edge:                             ; preds = %5
  %.pre = tail call ptr @__errno_location() #6
  %.pr = load i32, ptr %.pre, align 4
  br label %.critedge

8:                                                ; preds = %5
  %9 = tail call ptr @__errno_location() #6
  %10 = load i32, ptr %9, align 4
  %11 = icmp eq i32 %10, 4
  br i1 %11, label %5, label %.critedge, !llvm.loop !6

.critedge:                                        ; preds = %8, %..critedge_crit_edge
  %12 = phi i32 [ %.pr, %..critedge_crit_edge ], [ %10, %8 ]
  switch i32 %12, label %16 [
    i32 115, label %handleSocketError.exit
    i32 71, label %17
    i32 111, label %13
    i32 110, label %13
    i32 107, label %13
    i32 113, label %14
    i32 98, label %15
    i32 99, label %15
    i32 13, label %15
  ]

13:                                               ; preds = %.critedge, %.critedge, %.critedge
  br label %17

14:                                               ; preds = %.critedge
  br label %17

15:                                               ; preds = %.critedge, %.critedge, %.critedge
  br label %17

16:                                               ; preds = %.critedge
  br label %17

17:                                               ; preds = %16, %15, %14, %13, %.critedge
  %.0.i.i = phi ptr [ @.str.3, %16 ], [ @.str.17, %15 ], [ @.str.16, %14 ], [ @.str.15, %13 ], [ @.str.14, %.critedge ]
  call void @JNU_ThrowByNameWithLastError(ptr noundef %0, ptr noundef nonnull %.0.i.i, ptr noundef nonnull @.str.18) #7
  br label %handleSocketError.exit

18:                                               ; preds = %5
  %19 = load i32, ptr %4, align 4
  br label %handleSocketError.exit

handleSocketError.exit:                           ; preds = %17, %.critedge, %18
  %.0 = phi i32 [ %19, %18 ], [ -5, %.critedge ], [ -5, %17 ]
  ret i32 %.0
}